; Function Attrs: mustprogress uwtable
define dso_local noundef i32 @_ZN20cmCPackSTGZGenerator12PackageFilesEv(ptr noundef nonnull align 8 dereferenceable(432) %0) unnamed_addr #3 align 2 {
  %2 = tail call noundef i32 @_ZN23cmCPackArchiveGenerator12PackageFilesEv(ptr noundef nonnull align 8 dereferenceable(432) %0)
  %.not = icmp eq i32 %2, 0
  br i1 %.not, label %._crit_edge, label %3

3:                                                ; preds = %1
  %4 = getelementptr inbounds i8, ptr %0, i64 80
  %5 = load ptr, ptr %4, align 8
  %6 = getelementptr inbounds i8, ptr %0, i64 88
  %7 = load ptr, ptr %6, align 8
  %.not1112 = icmp eq ptr %5, %7
  br i1 %.not1112, label %._crit_edge, label %.lr.ph

.lr.ph:                                           ; preds = %3, %.lr.ph
  %.0614 = phi i1 [ %12, %.lr.ph ], [ true, %3 ]
  %.sroa.08.013 = phi ptr [ %13, %.lr.ph ], [ %5, %3 ]
  %8 = tail call noundef ptr @_ZNKSt7__cxx1112basic_stringIcSt11char_traitsIcESaIcEE5c_strEv(ptr noundef nonnull align 8 dereferenceable(32) %.sroa.08.013) #11
  %9 = tail call i64 @_ZN5cmsys11SystemTools14SetPermissionsEPKcjb(ptr noundef %8, i32 noundef 511, i1 noundef zeroext false)
  %10 = and i64 %9, 4294967295
  %11 = icmp eq i64 %10, 0
  %12 = and i1 %.0614, %11
  %13 = getelementptr inbounds i8, ptr %.sroa.08.013, i64 32
  %.not11 = icmp eq ptr %13, %7
  br i1 %.not11, label %._crit_edge.loopexit, label %.lr.ph

._crit_edge.loopexit:                             ; preds = %.lr.ph
  %14 = zext i1 %12 to i32
  br label %._crit_edge

._crit_edge:                                      ; preds = %3, %._crit_edge.loopexit, %1
  %.0 = phi i32 [ 0, %1 ], [ 1, %3 ], [ %14, %._crit_edge.loopexit ]
  ret i32 %.0
}